target datalayout = "e-m:e-p270:32:32-p271:32:32-p272:64:64-i64:64-i128:128-f80:128-n8:16:32:64-S128"
target triple = "x86_64-pc-linux-gnu"

%struct.curl_trc_feat = type { ptr, i32 }
%struct.Curl_easy = type { i32, i64, i64, ptr, %struct.Curl_llist_node, %struct.Curl_llist_node, i32, i32, %struct.Curl_message, %struct.easy_pollset, %struct.Names, ptr, ptr, ptr, ptr, %struct.SingleRequest, %struct.UserDefined, ptr, ptr, ptr, %struct.Progress, %struct.UrlState, ptr, %struct.PureInfo, %struct.curl_tlssessioninfo }
%struct.Curl_llist_node = type { ptr, ptr, ptr, ptr }
%struct.Curl_message = type { %struct.Curl_llist_node, %struct.CURLMsg }
%struct.CURLMsg = type { i32, ptr, %union.anon }
%union.anon = type { ptr }
%struct.easy_pollset = type { [5 x i32], i32, [5 x i8] }
%struct.Names = type { ptr, i32 }
%struct.SingleRequest = type <{ i64, i64, i64, i64, %struct.curltime, i32, i32, i32, i32, i64, i32, i32, i8, i8, [2 x i8], i32, ptr, ptr, %struct.bufq, i64, i64, ptr, ptr, %union.anon.0, ptr, i8, i32, [3 x i8] }>
%struct.curltime = type { i64, i32 }
%struct.bufq = type { ptr, ptr, ptr, ptr, i64, i64, i64, i32 }
%union.anon.0 = type { ptr }
%struct.UserDefined = type <{ ptr, ptr, ptr, ptr, ptr, ptr, i64, i64, i64, ptr, ptr, i64, ptr, ptr, ptr, ptr, ptr, ptr, ptr, ptr, ptr, ptr, ptr, ptr, ptr, ptr, ptr, ptr, ptr, ptr, ptr, ptr, ptr, ptr, ptr, i64, i64, i64, i64, i64, i64, i64, i64, i64, ptr, ptr, %struct.curl_mimepart, ptr, ptr, ptr, i64, %struct.ssl_config_data, %struct.ssl_config_data, ptr, i16, i8, i8, %struct.ssl_general_config, i32, i32, i32, [4 x i8], ptr, ptr, i64, i32, i8, i8, i8, i8, ptr, ptr, ptr, i32, [4 x i8], [74 x ptr], [8 x ptr], i32, i32, i32, [4 x i8], ptr, i32, [4 x i8], ptr, ptr, ptr, ptr, ptr, i32, i32, i32, i32, i32, i32, i32, i32, i64, ptr, ptr, i64, ptr, i64, ptr, ptr, ptr, ptr, i32, i16, i16, i16, i8, i8, i8, i8, i8, i8, i8, i8, i64, [6 x i8] }>
%struct.curl_mimepart = type { ptr, ptr, i32, i32, ptr, ptr, ptr, ptr, ptr, ptr, ptr, ptr, ptr, ptr, ptr, i64, %struct.mime_state, ptr, %struct.mime_encoder_state, i64 }
%struct.mime_state = type { i32, ptr, i64 }
%struct.mime_encoder_state = type { i64, i64, i64, [256 x i8] }
%struct.ssl_config_data = type { %struct.ssl_primary_config, i64, ptr, ptr, ptr, ptr, ptr, ptr, ptr, i16 }
%struct.ssl_primary_config = type { ptr, ptr, ptr, ptr, ptr, ptr, ptr, ptr, ptr, ptr, ptr, ptr, ptr, ptr, i8, i32, i8, i8 }
%struct.ssl_general_config = type { i32 }
%struct.Progress = type { i64, %struct.pgrs_dir, %struct.pgrs_dir, i64, i64, i32, i32, i64, i64, i64, i64, i64, i64, i64, i64, i64, %struct.curltime, %struct.curltime, %struct.curltime, %struct.curltime, %struct.curltime, [6 x i64], [6 x %struct.curltime], i32, i8 }
%struct.pgrs_dir = type { i64, i64, i64, %struct.pgrs_measure }
%struct.pgrs_measure = type { %struct.curltime, i64 }
%struct.UrlState = type { %struct.curltime, i64, i64, %struct.dynbuf, ptr, i64, ptr, i32, i32, i32, ptr, i32, i64, i32, ptr, %struct.digestdata, %struct.digestdata, %struct.auth, %struct.auth, %struct.Curl_async, ptr, i8, %struct.curltime, %struct.Curl_tree, %struct.Curl_llist, [15 x %struct.time_node], ptr, ptr, i64, i64, i64, i64, [32 x i8], i64, ptr, ptr, ptr, %struct.urlpieces, ptr, ptr, ptr, ptr, ptr, i64, %struct.dynbuf, %struct.Curl_llist, [2 x %struct.curl_header], ptr, i32, ptr, ptr, %struct.store_netrc, %struct.dynamically_allocated_data, i8, i8, i8, i8, i32 }
%struct.digestdata = type { ptr, ptr, ptr, ptr, ptr, ptr, i32, i8, i8 }
%struct.auth = type { i64, i64, i64, i8 }
%struct.Curl_async = type { ptr, ptr, ptr, ptr, i32, i32, i8 }
%struct.Curl_tree = type { ptr, ptr, ptr, ptr, %struct.curltime, ptr }
%struct.time_node = type { %struct.Curl_llist_node, %struct.curltime, i32 }
%struct.urlpieces = type { ptr, ptr, ptr, ptr, ptr, ptr, ptr, ptr }
%struct.dynbuf = type { ptr, i64, i64, i64 }
%struct.Curl_llist = type { ptr, ptr, ptr, i64 }
%struct.curl_header = type { ptr, ptr, i64, i64, i32, ptr }
%struct.store_netrc = type { %struct.dynbuf, ptr, i8 }
%struct.dynamically_allocated_data = type { ptr, ptr, ptr, ptr, ptr, ptr, ptr, ptr, ptr, ptr, ptr, ptr, ptr, ptr }
%struct.PureInfo = type { i32, i32, i32, i64, i64, i64, i64, i64, i64, i64, ptr, ptr, i64, i32, %struct.ip_quadruple, i32, ptr, i32, %struct.curl_certinfo, i32, i8 }
%struct.ip_quadruple = type { [46 x i8], [46 x i8], i32, i32 }
%struct.curl_certinfo = type { i32, ptr }
%struct.curl_tlssessioninfo = type { i32, ptr }
%struct.connectdata = type { %struct.Curl_llist_node, ptr, ptr, i64, ptr, i64, ptr, ptr, %struct.hostname, ptr, ptr, %struct.hostname, %struct.proxy_info, %struct.proxy_info, %struct.ip_quadruple, %struct.ip_quadruple, ptr, ptr, ptr, ptr, ptr, %struct.curltime, %struct.curltime, %struct.curltime, [2 x i32], [2 x ptr], [2 x ptr], [2 x ptr], %struct.anon, %struct.easy_pollset, %struct.ssl_primary_config, %struct.ssl_primary_config, %struct.ConnectBits, ptr, ptr, %struct.curltime, i32, i32, %struct.Curl_llist, i32, i32, %struct.ntlmdata, %struct.ntlmdata, %union.anon.1, ptr, ptr, i16, i32, i32, i32, i32, i16, i16, i8, i8, i8, i8, i8, i8, i8 }
%struct.hostname = type { ptr, ptr, ptr, ptr }
%struct.proxy_info = type { %struct.hostname, i32, i8, ptr, ptr }
%struct.anon = type { [2 x %struct.curltime], i32 }
%struct.ConnectBits = type { i64 }
%struct.ntlmdata = type { i32, [8 x i8], i32, ptr }
%union.anon.1 = type { %struct.ftp_conn }
%struct.ftp_conn = type { %struct.pingpong, ptr, ptr, ptr, ptr, ptr, ptr, ptr, i8, i64, ptr, i64, i32, i32, i32, i32, i32, i16, i8, i8, i8, i8, i8 }
%struct.pingpong = type { i64, i8, ptr, i64, i64, %struct.curltime, i64, %struct.dynbuf, %struct.dynbuf, i64, i64, ptr, ptr }
%struct.Curl_handler = type { ptr, ptr, ptr, ptr, ptr, ptr, ptr, ptr, ptr, ptr, ptr, ptr, ptr, ptr, ptr, ptr, ptr, ptr, i32, i32, i32, i32 }

@.str.8 = private unnamed_addr constant [41 x i8] c"REFUSED_STREAM, retrying a fresh connect\00", align 1
@.str.9 = private unnamed_addr constant [49 x i8] c"Connection died, tried %d times before giving up\00", align 1
@.str.10 = private unnamed_addr constant [60 x i8] c"Connection died, retrying a fresh connect (retry count: %d)\00", align 1
@Curl_cstrdup = external global ptr, align 8

; Function Attrs: nounwind uwtable
define hidden i32 @Curl_retry_request(ptr noundef %0, ptr noundef %1) #0 {
  %3 = alloca i32, align 4
  %4 = alloca ptr, align 8
  %5 = alloca ptr, align 8
  %6 = alloca ptr, align 8
  %7 = alloca i8, align 1
  %8 = alloca i32, align 4
  store ptr %0, ptr %4, align 8, !tbaa !3
  store ptr %1, ptr %5, align 8, !tbaa !170
  call void @llvm.lifetime.start.p0(i64 8, ptr %6) #4
  %9 = load ptr, ptr %4, align 8, !tbaa !3
  %10 = getelementptr inbounds nuw %struct.Curl_easy, ptr %9, i32 0, i32 3
  %11 = load ptr, ptr %10, align 8, !tbaa !93
  store ptr %11, ptr %6, align 8, !tbaa !116
  call void @llvm.lifetime.start.p0(i64 1, ptr %7) #4
  store i8 0, ptr %7, align 1, !tbaa !117
  %12 = load ptr, ptr %5, align 8, !tbaa !170
  store ptr null, ptr %12, align 8, !tbaa !8
  %13 = load ptr, ptr %4, align 8, !tbaa !3
  %14 = getelementptr inbounds nuw %struct.Curl_easy, ptr %13, i32 0, i32 21
  %15 = getelementptr inbounds nuw %struct.UrlState, ptr %14, i32 0, i32 57
  %16 = load i32, ptr %15, align 4
  %17 = lshr i32 %16, 19
  %18 = and i32 %17, 1
  %19 = icmp ne i32 %18, 0
  br i1 %19, label %20, label %29

20:                                               ; preds = %2
  %21 = load ptr, ptr %6, align 8, !tbaa !116
  %22 = getelementptr inbounds nuw %struct.connectdata, ptr %21, i32 0, i32 33
  %23 = load ptr, ptr %22, align 8, !tbaa !172
  %24 = getelementptr inbounds nuw %struct.Curl_handler, ptr %23, i32 0, i32 19
  %25 = load i32, ptr %24, align 4, !tbaa !173
  %26 = and i32 %25, -1073479677
  %27 = icmp ne i32 %26, 0
  br i1 %27, label %29, label %28

28:                                               ; preds = %20
  store i32 0, ptr %3, align 4
  store i32 1, ptr %8, align 4
  br label %202

29:                                               ; preds = %20, %2
  %30 = load ptr, ptr %4, align 8, !tbaa !3
  %31 = getelementptr inbounds nuw %struct.Curl_easy, ptr %30, i32 0, i32 15
  %32 = getelementptr inbounds nuw %struct.SingleRequest, ptr %31, i32 0, i32 2
  %33 = load i64, ptr %32, align 8, !tbaa !175
  %34 = load ptr, ptr %4, align 8, !tbaa !3
  %35 = getelementptr inbounds nuw %struct.Curl_easy, ptr %34, i32 0, i32 15
  %36 = getelementptr inbounds nuw %struct.SingleRequest, ptr %35, i32 0, i32 5
  %37 = load i32, ptr %36, align 8, !tbaa !169
  %38 = zext i32 %37 to i64
  %39 = add nsw i64 %33, %38
  %40 = icmp eq i64 %39, 0
  br i1 %40, label %41, label %72

41:                                               ; preds = %29
  %42 = load ptr, ptr %6, align 8, !tbaa !116
  %43 = getelementptr inbounds nuw %struct.connectdata, ptr %42, i32 0, i32 32
  %44 = load i64, ptr %43, align 8
  %45 = lshr i64 %44, 6
  %46 = and i64 %45, 1
  %47 = trunc i64 %46 to i32
  %48 = icmp ne i32 %47, 0
  br i1 %48, label %49, label %72

49:                                               ; preds = %41
  %50 = load ptr, ptr %4, align 8, !tbaa !3
  %51 = getelementptr inbounds nuw %struct.Curl_easy, ptr %50, i32 0, i32 15
  %52 = getelementptr inbounds nuw %struct.SingleRequest, ptr %51, i32 0, i32 26
  %53 = load i32, ptr %52, align 1
  %54 = lshr i32 %53, 17
  %55 = and i32 %54, 1
  %56 = icmp ne i32 %55, 0
  br i1 %56, label %57, label %65

57:                                               ; preds = %49
  %58 = load ptr, ptr %6, align 8, !tbaa !116
  %59 = getelementptr inbounds nuw %struct.connectdata, ptr %58, i32 0, i32 33
  %60 = load ptr, ptr %59, align 8, !tbaa !172
  %61 = getelementptr inbounds nuw %struct.Curl_handler, ptr %60, i32 0, i32 19
  %62 = load i32, ptr %61, align 4, !tbaa !173
  %63 = and i32 %62, -1073741821
  %64 = icmp ne i32 %63, 0
  br i1 %64, label %65, label %72

65:                                               ; preds = %57, %49
  %66 = load ptr, ptr %4, align 8, !tbaa !3
  %67 = getelementptr inbounds nuw %struct.Curl_easy, ptr %66, i32 0, i32 16
  %68 = getelementptr inbounds nuw %struct.UserDefined, ptr %67, i32 0, i32 82
  %69 = load i32, ptr %68, align 8, !tbaa !176
  %70 = icmp ne i32 %69, 11
  br i1 %70, label %71, label %72

71:                                               ; preds = %65
  store i8 1, ptr %7, align 1, !tbaa !117
  br label %131

72:                                               ; preds = %65, %57, %41, %29
  %73 = load ptr, ptr %4, align 8, !tbaa !3
  %74 = getelementptr inbounds nuw %struct.Curl_easy, ptr %73, i32 0, i32 21
  %75 = getelementptr inbounds nuw %struct.UrlState, ptr %74, i32 0, i32 57
  %76 = load i32, ptr %75, align 4
  %77 = lshr i32 %76, 4
  %78 = and i32 %77, 1
  %79 = icmp ne i32 %78, 0
  br i1 %79, label %80, label %130

80:                                               ; preds = %72
  %81 = load ptr, ptr %4, align 8, !tbaa !3
  %82 = getelementptr inbounds nuw %struct.Curl_easy, ptr %81, i32 0, i32 15
  %83 = getelementptr inbounds nuw %struct.SingleRequest, ptr %82, i32 0, i32 2
  %84 = load i64, ptr %83, align 8, !tbaa !175
  %85 = load ptr, ptr %4, align 8, !tbaa !3
  %86 = getelementptr inbounds nuw %struct.Curl_easy, ptr %85, i32 0, i32 15
  %87 = getelementptr inbounds nuw %struct.SingleRequest, ptr %86, i32 0, i32 5
  %88 = load i32, ptr %87, align 8, !tbaa !169
  %89 = zext i32 %88 to i64
  %90 = add nsw i64 %84, %89
  %91 = icmp eq i64 %90, 0
  br i1 %91, label %92, label %130

92:                                               ; preds = %80
  br label %93

93:                                               ; preds = %92
  %94 = load ptr, ptr %4, align 8, !tbaa !3
  %95 = icmp ne ptr %94, null
  br i1 %95, label %96, label %121

96:                                               ; preds = %93
  %97 = load ptr, ptr %4, align 8, !tbaa !3
  %98 = getelementptr inbounds nuw %struct.Curl_easy, ptr %97, i32 0, i32 16
  %99 = getelementptr inbounds nuw %struct.UserDefined, ptr %98, i32 0, i32 119
  %100 = load i64, ptr %99, align 2
  %101 = lshr i64 %100, 31
  %102 = and i64 %101, 1
  %103 = trunc i64 %102 to i32
  %104 = icmp ne i32 %103, 0
  br i1 %104, label %105, label %121

105:                                              ; preds = %96
  %106 = load ptr, ptr %4, align 8, !tbaa !3
  %107 = getelementptr inbounds nuw %struct.Curl_easy, ptr %106, i32 0, i32 21
  %108 = getelementptr inbounds nuw %struct.UrlState, ptr %107, i32 0, i32 50
  %109 = load ptr, ptr %108, align 8, !tbaa !88
  %110 = icmp ne ptr %109, null
  br i1 %110, label %111, label %119

111:                                              ; preds = %105
  %112 = load ptr, ptr %4, align 8, !tbaa !3
  %113 = getelementptr inbounds nuw %struct.Curl_easy, ptr %112, i32 0, i32 21
  %114 = getelementptr inbounds nuw %struct.UrlState, ptr %113, i32 0, i32 50
  %115 = load ptr, ptr %114, align 8, !tbaa !88
  %116 = getelementptr inbounds nuw %struct.curl_trc_feat, ptr %115, i32 0, i32 1
  %117 = load i32, ptr %116, align 8, !tbaa !89
  %118 = icmp sge i32 %117, 1
  br i1 %118, label %119, label %121

119:                                              ; preds = %111, %105
  %120 = load ptr, ptr %4, align 8, !tbaa !3
  call void (ptr, ptr, ...) @Curl_infof(ptr noundef %120, ptr noundef @.str.8)
  br label %121

121:                                              ; preds = %119, %111, %96, %93
  br label %122

122:                                              ; preds = %121
  br label %123

123:                                              ; preds = %122
  %124 = load ptr, ptr %4, align 8, !tbaa !3
  %125 = getelementptr inbounds nuw %struct.Curl_easy, ptr %124, i32 0, i32 21
  %126 = getelementptr inbounds nuw %struct.UrlState, ptr %125, i32 0, i32 57
  %127 = load i32, ptr %126, align 4
  %128 = and i32 %127, -17
  %129 = or i32 %128, 0
  store i32 %129, ptr %126, align 4
  store i8 1, ptr %7, align 1, !tbaa !117
  br label %130

130:                                              ; preds = %123, %80, %72
  br label %131

131:                                              ; preds = %130, %71
  %132 = load i8, ptr %7, align 1, !tbaa !117, !range !119, !noundef !120
  %133 = trunc i8 %132 to i1
  br i1 %133, label %134, label %201

134:                                              ; preds = %131
  %135 = load ptr, ptr %4, align 8, !tbaa !3
  %136 = getelementptr inbounds nuw %struct.Curl_easy, ptr %135, i32 0, i32 21
  %137 = getelementptr inbounds nuw %struct.UrlState, ptr %136, i32 0, i32 9
  %138 = load i32, ptr %137, align 8, !tbaa !177
  %139 = add nsw i32 %138, 1
  store i32 %139, ptr %137, align 8, !tbaa !177
  %140 = icmp sge i32 %138, 5
  br i1 %140, label %141, label %146

141:                                              ; preds = %134
  %142 = load ptr, ptr %4, align 8, !tbaa !3
  call void (ptr, ptr, ...) @Curl_failf(ptr noundef %142, ptr noundef @.str.9, i32 noundef 5)
  %143 = load ptr, ptr %4, align 8, !tbaa !3
  %144 = getelementptr inbounds nuw %struct.Curl_easy, ptr %143, i32 0, i32 21
  %145 = getelementptr inbounds nuw %struct.UrlState, ptr %144, i32 0, i32 9
  store i32 0, ptr %145, align 8, !tbaa !177
  store i32 55, ptr %3, align 4
  store i32 1, ptr %8, align 4
  br label %202

146:                                              ; preds = %134
  br label %147

147:                                              ; preds = %146
  %148 = load ptr, ptr %4, align 8, !tbaa !3
  %149 = icmp ne ptr %148, null
  br i1 %149, label %150, label %179

150:                                              ; preds = %147
  %151 = load ptr, ptr %4, align 8, !tbaa !3
  %152 = getelementptr inbounds nuw %struct.Curl_easy, ptr %151, i32 0, i32 16
  %153 = getelementptr inbounds nuw %struct.UserDefined, ptr %152, i32 0, i32 119
  %154 = load i64, ptr %153, align 2
  %155 = lshr i64 %154, 31
  %156 = and i64 %155, 1
  %157 = trunc i64 %156 to i32
  %158 = icmp ne i32 %157, 0
  br i1 %158, label %159, label %179

159:                                              ; preds = %150
  %160 = load ptr, ptr %4, align 8, !tbaa !3
  %161 = getelementptr inbounds nuw %struct.Curl_easy, ptr %160, i32 0, i32 21
  %162 = getelementptr inbounds nuw %struct.UrlState, ptr %161, i32 0, i32 50
  %163 = load ptr, ptr %162, align 8, !tbaa !88
  %164 = icmp ne ptr %163, null
  br i1 %164, label %165, label %173

165:                                              ; preds = %159
  %166 = load ptr, ptr %4, align 8, !tbaa !3
  %167 = getelementptr inbounds nuw %struct.Curl_easy, ptr %166, i32 0, i32 21
  %168 = getelementptr inbounds nuw %struct.UrlState, ptr %167, i32 0, i32 50
  %169 = load ptr, ptr %168, align 8, !tbaa !88
  %170 = getelementptr inbounds nuw %struct.curl_trc_feat, ptr %169, i32 0, i32 1
  %171 = load i32, ptr %170, align 8, !tbaa !89
  %172 = icmp sge i32 %171, 1
  br i1 %172, label %173, label %179

173:                                              ; preds = %165, %159
  %174 = load ptr, ptr %4, align 8, !tbaa !3
  %175 = load ptr, ptr %4, align 8, !tbaa !3
  %176 = getelementptr inbounds nuw %struct.Curl_easy, ptr %175, i32 0, i32 21
  %177 = getelementptr inbounds nuw %struct.UrlState, ptr %176, i32 0, i32 9
  %178 = load i32, ptr %177, align 8, !tbaa !177
  call void (ptr, ptr, ...) @Curl_infof(ptr noundef %174, ptr noundef @.str.10, i32 noundef %178)
  br label %179

179:                                              ; preds = %173, %165, %150, %147
  br label %180

180:                                              ; preds = %179
  br label %181

181:                                              ; preds = %180
  %182 = load ptr, ptr @Curl_cstrdup, align 8, !tbaa !129
  %183 = load ptr, ptr %4, align 8, !tbaa !3
  %184 = getelementptr inbounds nuw %struct.Curl_easy, ptr %183, i32 0, i32 21
  %185 = getelementptr inbounds nuw %struct.UrlState, ptr %184, i32 0, i32 38
  %186 = load ptr, ptr %185, align 8, !tbaa !130
  %187 = call ptr %182(ptr noundef %186)
  %188 = load ptr, ptr %5, align 8, !tbaa !170
  store ptr %187, ptr %188, align 8, !tbaa !8
  %189 = load ptr, ptr %5, align 8, !tbaa !170
  %190 = load ptr, ptr %189, align 8, !tbaa !8
  %191 = icmp ne ptr %190, null
  br i1 %191, label %193, label %192

192:                                              ; preds = %181
  store i32 27, ptr %3, align 4
  store i32 1, ptr %8, align 4
  br label %202

193:                                              ; preds = %181
  %194 = load ptr, ptr %6, align 8, !tbaa !116
  call void @Curl_conncontrol(ptr noundef %194, i32 noundef 1)
  %195 = load ptr, ptr %6, align 8, !tbaa !116
  %196 = getelementptr inbounds nuw %struct.connectdata, ptr %195, i32 0, i32 32
  %197 = load i64, ptr %196, align 8
  %198 = and i64 %197, -16385
  %199 = or i64 %198, 16384
  store i64 %199, ptr %196, align 8
  %200 = load ptr, ptr %4, align 8, !tbaa !3
  call void @Curl_creader_set_rewind(ptr noundef %200, i1 noundef zeroext true)
  br label %201

201:                                              ; preds = %193, %131
  store i32 0, ptr %3, align 4
  store i32 1, ptr %8, align 4
  br label %202

202:                                              ; preds = %201, %192, %141, %28
  call void @llvm.lifetime.end.p0(i64 1, ptr %7) #4
  call void @llvm.lifetime.end.p0(i64 8, ptr %6) #4
  %203 = load i32, ptr %3, align 4
  ret i32 %203
}