; Function Attrs: nounwind uwtable
define hidden range(i32 0, 56) i32 @Curl_retry_request(ptr noundef %0, ptr noundef writeonly captures(none) initializes((0, 8)) %1) local_unnamed_addr #0 {
  %3 = getelementptr inbounds nuw i8, ptr %0, i64 24
  %4 = load ptr, ptr %3, align 8, !tbaa !85
  store ptr null, ptr %1, align 8, !tbaa !99
  %5 = getelementptr inbounds nuw i8, ptr %0, i64 5036
  %6 = load i32, ptr %5, align 4
  %7 = and i32 %6, 524288
  %.not = icmp eq i32 %7, 0
  br i1 %.not, label %14, label %8

8:                                                ; preds = %2
  %9 = getelementptr inbounds nuw i8, ptr %4, i64 960
  %10 = load ptr, ptr %9, align 8, !tbaa !110
  %11 = getelementptr inbounds nuw i8, ptr %10, i64 148
  %12 = load i32, ptr %11, align 4, !tbaa !114
  %13 = and i32 %12, -1073479677
  %.not39 = icmp eq i32 %13, 0
  br i1 %.not39, label %.thread53, label %14

14:                                               ; preds = %8, %2
  %15 = getelementptr inbounds nuw i8, ptr %0, i64 256
  %16 = load i64, ptr %15, align 8, !tbaa !103
  %17 = getelementptr inbounds nuw i8, ptr %0, i64 288
  %18 = load i32, ptr %17, align 8, !tbaa !164
  %19 = zext i32 %18 to i64
  %20 = sub nsw i64 0, %19
  %21 = icmp eq i64 %16, %20
  br i1 %21, label %22, label %.thread53

22:                                               ; preds = %14
  %23 = getelementptr inbounds nuw i8, ptr %4, i64 952
  %24 = load i64, ptr %23, align 8
  %25 = and i64 %24, 64
  %.not40 = icmp eq i64 %25, 0
  br i1 %.not40, label %39, label %26

26:                                               ; preds = %22
  %27 = getelementptr inbounds nuw i8, ptr %0, i64 457
  %28 = load i32, ptr %27, align 1
  %29 = and i32 %28, 131072
  %.not41 = icmp eq i32 %29, 0
  br i1 %.not41, label %36, label %30

30:                                               ; preds = %26
  %31 = getelementptr inbounds nuw i8, ptr %4, i64 960
  %32 = load ptr, ptr %31, align 8, !tbaa !110
  %33 = getelementptr inbounds nuw i8, ptr %32, i64 148
  %34 = load i32, ptr %33, align 4, !tbaa !114
  %35 = and i32 %34, -1073741821
  %.not42 = icmp eq i32 %35, 0
  br i1 %.not42, label %39, label %36

36:                                               ; preds = %30, %26
  %37 = getelementptr inbounds nuw i8, ptr %0, i64 2480
  %38 = load i32, ptr %37, align 8, !tbaa !165
  %.not43 = icmp eq i32 %38, 11
  br i1 %.not43, label %39, label %.critedge

39:                                               ; preds = %36, %30, %22
  %40 = and i32 %6, 16
  %.not44 = icmp eq i32 %40, 0
  br i1 %.not44, label %.thread53, label %41

41:                                               ; preds = %39
  %42 = getelementptr inbounds nuw i8, ptr %0, i64 2658
  %43 = load i64, ptr %42, align 2
  %44 = and i64 %43, 2147483648
  %.not46 = icmp eq i64 %44, 0
  br i1 %.not46, label %53, label %45

45:                                               ; preds = %41
  %46 = getelementptr inbounds nuw i8, ptr %0, i64 4864
  %47 = load ptr, ptr %46, align 8, !tbaa !82
  %.not47 = icmp eq ptr %47, null
  br i1 %.not47, label %52, label %48

48:                                               ; preds = %45
  %49 = getelementptr inbounds nuw i8, ptr %47, i64 8
  %50 = load i32, ptr %49, align 8, !tbaa !83
  %51 = icmp sgt i32 %50, 0
  br i1 %51, label %52, label %53

52:                                               ; preds = %48, %45
  tail call void (ptr, ptr, ...) @Curl_infof(ptr noundef nonnull %0, ptr noundef nonnull @.str.8) #6
  %.pre = load i32, ptr %5, align 4
  br label %53

53:                                               ; preds = %52, %48, %41
  %54 = phi i32 [ %.pre, %52 ], [ %6, %48 ], [ %6, %41 ]
  %55 = and i32 %54, -17
  store i32 %55, ptr %5, align 4
  br label %.critedge

.critedge:                                        ; preds = %36, %53
  %56 = getelementptr inbounds nuw i8, ptr %0, i64 3224
  %57 = load i32, ptr %56, align 8, !tbaa !166
  %58 = add nsw i32 %57, 1
  store i32 %58, ptr %56, align 8, !tbaa !166
  %59 = icmp sgt i32 %57, 4
  br i1 %59, label %60, label %61

60:                                               ; preds = %.critedge
  tail call void (ptr, ptr, ...) @Curl_failf(ptr noundef nonnull %0, ptr noundef nonnull @.str.9, i32 noundef 5) #6
  store i32 0, ptr %56, align 8, !tbaa !166
  br label %.thread53

61:                                               ; preds = %.critedge
  %62 = getelementptr inbounds nuw i8, ptr %0, i64 2658
  %63 = load i64, ptr %62, align 2
  %64 = and i64 %63, 2147483648
  %.not49 = icmp eq i64 %64, 0
  br i1 %.not49, label %73, label %65

65:                                               ; preds = %61
  %66 = getelementptr inbounds nuw i8, ptr %0, i64 4864
  %67 = load ptr, ptr %66, align 8, !tbaa !82
  %.not50 = icmp eq ptr %67, null
  br i1 %.not50, label %72, label %68

68:                                               ; preds = %65
  %69 = getelementptr inbounds nuw i8, ptr %67, i64 8
  %70 = load i32, ptr %69, align 8, !tbaa !83
  %71 = icmp sgt i32 %70, 0
  br i1 %71, label %72, label %73

72:                                               ; preds = %68, %65
  tail call void (ptr, ptr, ...) @Curl_infof(ptr noundef nonnull %0, ptr noundef nonnull @.str.10, i32 noundef %58) #6
  br label %73

73:                                               ; preds = %72, %68, %61
  %74 = load ptr, ptr @Curl_cstrdup, align 8, !tbaa !124
  %75 = getelementptr inbounds nuw i8, ptr %0, i64 4632
  %76 = load ptr, ptr %75, align 8, !tbaa !125
  %77 = tail call ptr %74(ptr noundef %76) #6
  store ptr %77, ptr %1, align 8, !tbaa !99
  %.not51 = icmp eq ptr %77, null
  br i1 %.not51, label %.thread53, label %78

78:                                               ; preds = %73
  tail call void @Curl_conncontrol(ptr noundef nonnull %4, i32 noundef 1) #6
  %79 = load i64, ptr %23, align 8
  %80 = or i64 %79, 16384
  store i64 %80, ptr %23, align 8
  tail call void @Curl_creader_set_rewind(ptr noundef nonnull %0, i1 noundef zeroext true) #6
  br label %.thread53

.thread53:                                        ; preds = %39, %14, %78, %73, %8, %60
  %.035 = phi i32 [ 55, %60 ], [ 0, %8 ], [ 27, %73 ], [ 0, %39 ], [ 0, %78 ], [ 0, %14 ]
  ret i32 %.035
}